target datalayout = "e-m:e-p270:32:32-p271:32:32-p272:64:64-i64:64-i128:128-f80:128-n8:16:32:64-S128"
target triple = "x86_64-pc-linux-gnu"

%struct.DdManager = type { %struct.DdNode, ptr, ptr, ptr, ptr, ptr, ptr, ptr, i32, i32, double, double, double, i32, i32, i32, i32, i32, i32, ptr, ptr, %struct.DdSubtable, i32, i32, i32, i32, i32, i32, i32, double, i32, i32, i32, ptr, i64, double, i32, ptr, ptr, ptr, ptr, ptr, ptr, ptr, i32, ptr, ptr, ptr, ptr, ptr, ptr, i32, i32, i32, double, i32, i32, i32, i32, double, double, i32, i32, i32, i32, i32, i32, i32, i32, i32, ptr, ptr, i32, i32, i32, i32, i32, i32, ptr, ptr, ptr, ptr, ptr, ptr, ptr, ptr, i32, i64, i64, i64, i32, i64, i64, double, double, double, double, double, double, i32, ptr, ptr, i64 }
%struct.DdNode = type { i32, i32, ptr, %union.anon, i64 }
%union.anon = type { %struct.DdChildren }
%struct.DdChildren = type { ptr, ptr }
%struct.DdSubtable = type { ptr, i32, i32, i32, i32, i32, i32, i32, i32, i32, i32, i32 }

; Function Attrs: nounwind uwtable
define ptr @cuddZddChange(ptr noundef %0, ptr noundef %1, i32 noundef %2) #0 {
  %4 = alloca ptr, align 8
  %5 = alloca ptr, align 8
  %6 = alloca ptr, align 8
  %7 = alloca i32, align 4
  %8 = alloca ptr, align 8
  %9 = alloca ptr, align 8
  %10 = alloca i32, align 4
  store ptr %0, ptr %5, align 8, !tbaa !3
  store ptr %1, ptr %6, align 8, !tbaa !8
  store i32 %2, ptr %7, align 4, !tbaa !32
  call void @llvm.lifetime.start.p0(i64 8, ptr %8) #3
  call void @llvm.lifetime.start.p0(i64 8, ptr %9) #3
  %11 = load ptr, ptr %5, align 8, !tbaa !3
  %12 = load i32, ptr %7, align 4, !tbaa !32
  %13 = load ptr, ptr %5, align 8, !tbaa !3
  %14 = getelementptr inbounds nuw %struct.DdManager, ptr %13, i32 0, i32 1
  %15 = load ptr, ptr %14, align 8, !tbaa !33
  %16 = load ptr, ptr %5, align 8, !tbaa !3
  %17 = getelementptr inbounds nuw %struct.DdManager, ptr %16, i32 0, i32 2
  %18 = load ptr, ptr %17, align 8, !tbaa !29
  %19 = call ptr @cuddUniqueInterZdd(ptr noundef %11, i32 noundef %12, ptr noundef %15, ptr noundef %18)
  store ptr %19, ptr %8, align 8, !tbaa !8
  %20 = load ptr, ptr %8, align 8, !tbaa !8
  %21 = icmp eq ptr %20, null
  br i1 %21, label %22, label %23

22:                                               ; preds = %3
  store ptr null, ptr %4, align 8
  store i32 1, ptr %10, align 4
  br label %58

23:                                               ; preds = %3
  %24 = load ptr, ptr %8, align 8, !tbaa !8
  %25 = ptrtoint ptr %24 to i64
  %26 = and i64 %25, -2
  %27 = inttoptr i64 %26 to ptr
  %28 = getelementptr inbounds nuw %struct.DdNode, ptr %27, i32 0, i32 1
  %29 = load i32, ptr %28, align 4, !tbaa !36
  %30 = add i32 %29, 1
  store i32 %30, ptr %28, align 4, !tbaa !36
  %31 = load ptr, ptr %5, align 8, !tbaa !3
  %32 = load ptr, ptr %6, align 8, !tbaa !8
  %33 = load ptr, ptr %8, align 8, !tbaa !8
  %34 = call ptr @cuddZddChangeAux(ptr noundef %31, ptr noundef %32, ptr noundef %33)
  store ptr %34, ptr %9, align 8, !tbaa !8
  %35 = load ptr, ptr %9, align 8, !tbaa !8
  %36 = icmp eq ptr %35, null
  br i1 %36, label %37, label %40

37:                                               ; preds = %23
  %38 = load ptr, ptr %5, align 8, !tbaa !3
  %39 = load ptr, ptr %8, align 8, !tbaa !8
  call void @Cudd_RecursiveDerefZdd(ptr noundef %38, ptr noundef %39)
  store ptr null, ptr %4, align 8
  store i32 1, ptr %10, align 4
  br label %58

40:                                               ; preds = %23
  %41 = load ptr, ptr %9, align 8, !tbaa !8
  %42 = ptrtoint ptr %41 to i64
  %43 = and i64 %42, -2
  %44 = inttoptr i64 %43 to ptr
  %45 = getelementptr inbounds nuw %struct.DdNode, ptr %44, i32 0, i32 1
  %46 = load i32, ptr %45, align 4, !tbaa !36
  %47 = add i32 %46, 1
  store i32 %47, ptr %45, align 4, !tbaa !36
  %48 = load ptr, ptr %5, align 8, !tbaa !3
  %49 = load ptr, ptr %8, align 8, !tbaa !8
  call void @Cudd_RecursiveDerefZdd(ptr noundef %48, ptr noundef %49)
  %50 = load ptr, ptr %9, align 8, !tbaa !8
  %51 = ptrtoint ptr %50 to i64
  %52 = and i64 %51, -2
  %53 = inttoptr i64 %52 to ptr
  %54 = getelementptr inbounds nuw %struct.DdNode, ptr %53, i32 0, i32 1
  %55 = load i32, ptr %54, align 4, !tbaa !36
  %56 = add i32 %55, -1
  store i32 %56, ptr %54, align 4, !tbaa !36
  %57 = load ptr, ptr %9, align 8, !tbaa !8
  store ptr %57, ptr %4, align 8
  store i32 1, ptr %10, align 4
  br label %58

58:                                               ; preds = %40, %37, %22
  call void @llvm.lifetime.end.p0(i64 8, ptr %9) #3
  call void @llvm.lifetime.end.p0(i64 8, ptr %8) #3
  %59 = load ptr, ptr %4, align 8
  ret ptr %59
}