; Function Attrs: nounwind uwtable
define ptr @cuddZddChange(ptr noundef %0, ptr noundef %1, i32 noundef %2) local_unnamed_addr #0 {
  %4 = getelementptr inbounds nuw i8, ptr %0, i64 40
  %5 = load ptr, ptr %4, align 8, !tbaa !37
  %6 = getelementptr inbounds nuw i8, ptr %0, i64 48
  %7 = load ptr, ptr %6, align 8, !tbaa !26
  %8 = tail call ptr @cuddUniqueInterZdd(ptr noundef %0, i32 noundef %2, ptr noundef %5, ptr noundef %7) #3
  %9 = icmp eq ptr %8, null
  br i1 %9, label %29, label %10

10:                                               ; preds = %3
  %11 = ptrtoint ptr %8 to i64
  %12 = and i64 %11, -2
  %13 = inttoptr i64 %12 to ptr
  %14 = getelementptr inbounds nuw i8, ptr %13, i64 4
  %15 = load i32, ptr %14, align 4, !tbaa !33
  %16 = add i32 %15, 1
  store i32 %16, ptr %14, align 4, !tbaa !33
  %17 = tail call ptr @cuddZddChangeAux(ptr noundef nonnull %0, ptr noundef %1, ptr noundef nonnull %8)
  %18 = icmp eq ptr %17, null
  br i1 %18, label %19, label %20

19:                                               ; preds = %10
  tail call void @Cudd_RecursiveDerefZdd(ptr noundef nonnull %0, ptr noundef nonnull %8) #3
  br label %29

20:                                               ; preds = %10
  %21 = ptrtoint ptr %17 to i64
  %22 = and i64 %21, -2
  %23 = inttoptr i64 %22 to ptr
  %24 = getelementptr inbounds nuw i8, ptr %23, i64 4
  %25 = load i32, ptr %24, align 4, !tbaa !33
  %26 = add i32 %25, 1
  store i32 %26, ptr %24, align 4, !tbaa !33
  tail call void @Cudd_RecursiveDerefZdd(ptr noundef nonnull %0, ptr noundef nonnull %8) #3
  %27 = load i32, ptr %24, align 4, !tbaa !33
  %28 = add i32 %27, -1
  store i32 %28, ptr %24, align 4, !tbaa !33
  br label %29

29:                                               ; preds = %3, %20, %19
  %.0 = phi ptr [ null, %19 ], [ %17, %20 ], [ null, %3 ]
  ret ptr %.0
}